; Function Attrs: mustprogress nounwind uwtable
define hidden void @_ZN7datalog14mk_array_blastD0Ev(ptr noundef nonnull align 8 dereferenceable(540) %this) unnamed_addr #4 align 2 personality ptr @__gxx_personality_v0 {
entry:
  store ptr getelementptr inbounds ({ [6 x ptr] }, ptr @_ZTVN7datalog14mk_array_blastE, i64 0, i32 0, i64 2), ptr %this, align 8
  %m_defs.i = getelementptr inbounds i8, ptr %this, i64 512
  %0 = load ptr, ptr %m_defs.i, align 8
  %cmp.i.i.i.i.i = icmp eq ptr %0, null
  br i1 %cmp.i.i.i.i.i, label %_ZN7datalog14mk_array_blastD2Ev.exit, label %for.cond.preheader.i.i.i.i.i

for.cond.preheader.i.i.i.i.i:                     ; preds = %entry
  invoke void @_ZN6memory10deallocateEPv(ptr noundef nonnull %0)
          to label %_ZN7datalog14mk_array_blastD2Ev.exit unwind label %terminate.lpad.i.i.i

terminate.lpad.i.i.i:                             ; preds = %for.cond.preheader.i.i.i.i.i
  %1 = landingpad { ptr, i32 }
          catch ptr null
  %2 = extractvalue { ptr, i32 } %1, 0
  tail call void @__clang_call_terminate(ptr %2) #18
  unreachable

_ZN7datalog14mk_array_blastD2Ev.exit:             ; preds = %entry, %for.cond.preheader.i.i.i.i.i
  store ptr null, ptr %m_defs.i, align 8
  %m_simplifier.i = getelementptr inbounds i8, ptr %this, i64 88
  tail call void @_ZN7datalog25mk_interp_tail_simplifierD1Ev(ptr noundef nonnull align 8 dereferenceable(424) %m_simplifier.i) #17
  %m_rewriter.i = getelementptr inbounds i8, ptr %this, i64 72
  tail call void @_ZN11th_rewriterD1Ev(ptr noundef nonnull align 8 dereferenceable(16) %m_rewriter.i) #17
  %m_params.i = getelementptr inbounds i8, ptr %this, i64 64
  tail call void @_ZN10params_refD1Ev(ptr noundef nonnull align 8 dereferenceable(8) %m_params.i) #17
  tail call void @_ZdlPv(ptr noundef nonnull %this) #19
  ret void
}